target datalayout = "e-m:e-p270:32:32-p271:32:32-p272:64:64-i64:64-i128:128-f80:128-n8:16:32:64-S128"
target triple = "x86_64-pc-linux-gnu"

%struct.object_id = type { [32 x i8], i32 }
%struct.repository = type { ptr, ptr, ptr, ptr, ptr, %struct.strmap, %struct.strmap, %struct.repo_path_cache, ptr, ptr, ptr, ptr, %struct.repo_settings, ptr, ptr, ptr, ptr, ptr, ptr, i32, i32, i32, ptr, ptr, i32, i32, i8 }
%struct.strmap = type { %struct.hashmap, ptr, i8 }
%struct.hashmap = type { ptr, ptr, ptr, i32, i32, i32, i32, i8 }
%struct.repo_path_cache = type { ptr, ptr, ptr, ptr, ptr, ptr, ptr }
%struct.repo_settings = type { i32, i32, i32, i32, i32, i32, i32, i32, i32, i32, i32, i32, ptr, i32, i32, i32, i32, i32, i32, i32, i64, i64, i64 }
%struct.index_state = type { ptr, i32, i32, i32, i32, ptr, ptr, ptr, %struct.cache_time, i8, i32, %struct.hashmap, %struct.hashmap, %struct.object_id, ptr, ptr, ptr, ptr, ptr, ptr, ptr }
%struct.cache_time = type { i32, i32 }
%struct.cache_entry = type { %struct.hashmap_entry, %struct.stat_data, i32, i32, i32, i32, i32, %struct.object_id, [0 x i8] }
%struct.hashmap_entry = type { ptr, i32 }
%struct.stat_data = type { %struct.cache_time, %struct.cache_time, i32, i32, i32, i32, i32 }

@the_repository = external global ptr, align 8
@.str.31 = private unnamed_addr constant [27 x i8] c"size_t overflow: %lu + %lu\00", align 1
@.str.35 = private unnamed_addr constant [17 x i8] c"%.*s is in index\00", align 1

; Function Attrs: inlinehint nounwind uwtable
define internal i64 @st_add(i64 noundef %0, i64 noundef %1) #4 {
  %3 = alloca i64, align 8
  %4 = alloca i64, align 8
  store i64 %0, ptr %3, align 8, !tbaa !68
  store i64 %1, ptr %4, align 8, !tbaa !68
  %5 = load i64, ptr %4, align 8, !tbaa !68
  %6 = load i64, ptr %3, align 8, !tbaa !68
  %7 = sub i64 -1, %6
  %8 = icmp ugt i64 %5, %7
  br i1 %8, label %9, label %12

9:                                                ; preds = %2
  %10 = load i64, ptr %3, align 8, !tbaa !68
  %11 = load i64, ptr %4, align 8, !tbaa !68
  call void (ptr, ...) @die(ptr noundef @.str.31, i64 noundef %10, i64 noundef %11) #10
  unreachable

12:                                               ; preds = %2
  %13 = load i64, ptr %3, align 8, !tbaa !68
  %14 = load i64, ptr %4, align 8, !tbaa !68
  %15 = add i64 %13, %14
  ret i64 %15
}

; Function Attrs: nounwind uwtable
define internal ptr @add_slash(ptr noundef %0) #0 {
  %2 = alloca ptr, align 8
  %3 = alloca ptr, align 8
  %4 = alloca i64, align 8
  %5 = alloca ptr, align 8
  %6 = alloca i32, align 4
  store ptr %0, ptr %3, align 8, !tbaa !11
  call void @llvm.lifetime.start.p0(i64 8, ptr %4) #9
  %7 = load ptr, ptr %3, align 8, !tbaa !11
  %8 = call i64 @strlen(ptr noundef %7) #11
  store i64 %8, ptr %4, align 8, !tbaa !68
  %9 = load i64, ptr %4, align 8, !tbaa !68
  %10 = icmp ne i64 %9, 0
  br i1 %10, label %11, label %34

11:                                               ; preds = %1
  %12 = load ptr, ptr %3, align 8, !tbaa !11
  %13 = load i64, ptr %4, align 8, !tbaa !68
  %14 = sub i64 %13, 1
  %15 = getelementptr inbounds nuw i8, ptr %12, i64 %14
  %16 = load i8, ptr %15, align 1, !tbaa !32
  %17 = sext i8 %16 to i32
  %18 = icmp ne i32 %17, 47
  br i1 %18, label %19, label %34

19:                                               ; preds = %11
  call void @llvm.lifetime.start.p0(i64 8, ptr %5) #9
  %20 = load i64, ptr %4, align 8, !tbaa !68
  %21 = call i64 @st_add(i64 noundef %20, i64 noundef 2)
  %22 = call ptr @xmalloc(i64 noundef %21)
  store ptr %22, ptr %5, align 8, !tbaa !11
  %23 = load ptr, ptr %5, align 8, !tbaa !11
  %24 = load ptr, ptr %3, align 8, !tbaa !11
  %25 = load i64, ptr %4, align 8, !tbaa !68
  call void @llvm.memcpy.p0.p0.i64(ptr align 1 %23, ptr align 1 %24, i64 %25, i1 false)
  %26 = load ptr, ptr %5, align 8, !tbaa !11
  %27 = load i64, ptr %4, align 8, !tbaa !68
  %28 = add i64 %27, 1
  store i64 %28, ptr %4, align 8, !tbaa !68
  %29 = getelementptr inbounds nuw i8, ptr %26, i64 %27
  store i8 47, ptr %29, align 1, !tbaa !32
  %30 = load ptr, ptr %5, align 8, !tbaa !11
  %31 = load i64, ptr %4, align 8, !tbaa !68
  %32 = getelementptr inbounds nuw i8, ptr %30, i64 %31
  store i8 0, ptr %32, align 1, !tbaa !32
  %33 = load ptr, ptr %5, align 8, !tbaa !11
  store ptr %33, ptr %2, align 8
  store i32 1, ptr %6, align 4
  call void @llvm.lifetime.end.p0(i64 8, ptr %5) #9
  br label %37

34:                                               ; preds = %11, %1
  %35 = load ptr, ptr %3, align 8, !tbaa !11
  %36 = call ptr @xstrdup(ptr noundef %35)
  store ptr %36, ptr %2, align 8
  store i32 1, ptr %6, align 4
  br label %37

37:                                               ; preds = %34, %19
  call void @llvm.lifetime.end.p0(i64 8, ptr %4) #9
  %38 = load ptr, ptr %2, align 8
  ret ptr %38
}

; Function Attrs: nounwind uwtable
define internal i32 @index_range_of_same_dir(ptr noundef %0, i32 noundef %1, ptr noundef %2, ptr noundef %3) #0 {
  %5 = alloca ptr, align 8
  %6 = alloca i32, align 4
  %7 = alloca ptr, align 8
  %8 = alloca ptr, align 8
  %9 = alloca ptr, align 8
  %10 = alloca i32, align 4
  %11 = alloca i32, align 4
  %12 = alloca i32, align 4
  %13 = alloca ptr, align 8
  %14 = alloca i32, align 4
  store ptr %0, ptr %5, align 8, !tbaa !11
  store i32 %1, ptr %6, align 4, !tbaa !4
  store ptr %2, ptr %7, align 8, !tbaa !88
  store ptr %3, ptr %8, align 8, !tbaa !88
  call void @llvm.lifetime.start.p0(i64 8, ptr %9) #9
  %15 = load ptr, ptr %5, align 8, !tbaa !11
  %16 = call ptr @add_slash(ptr noundef %15)
  store ptr %16, ptr %9, align 8, !tbaa !11
  call void @llvm.lifetime.start.p0(i64 4, ptr %10) #9
  call void @llvm.lifetime.start.p0(i64 4, ptr %11) #9
  call void @llvm.lifetime.start.p0(i64 4, ptr %12) #9
  %17 = load i32, ptr %6, align 4, !tbaa !4
  %18 = add nsw i32 %17, 1
  store i32 %18, ptr %12, align 4, !tbaa !4
  %19 = load ptr, ptr @the_repository, align 8, !tbaa !13
  %20 = getelementptr inbounds nuw %struct.repository, ptr %19, i32 0, i32 15
  %21 = load ptr, ptr %20, align 8, !tbaa !36
  %22 = load ptr, ptr %9, align 8, !tbaa !11
  %23 = load i32, ptr %12, align 4, !tbaa !4
  %24 = call i32 @index_name_pos(ptr noundef %21, ptr noundef %22, i32 noundef %23)
  store i32 %24, ptr %10, align 4, !tbaa !4
  %25 = load i32, ptr %10, align 4, !tbaa !4
  %26 = icmp sge i32 %25, 0
  br i1 %26, label %27, label %31

27:                                               ; preds = %4
  %28 = call ptr @_(ptr noundef @.str.35)
  %29 = load i32, ptr %12, align 4, !tbaa !4
  %30 = load ptr, ptr %9, align 8, !tbaa !11
  call void (ptr, ...) @die(ptr noundef %28, i32 noundef %29, ptr noundef %30) #10
  unreachable

31:                                               ; preds = %4
  %32 = load i32, ptr %10, align 4, !tbaa !4
  %33 = sub nsw i32 -1, %32
  store i32 %33, ptr %10, align 4, !tbaa !4
  %34 = load i32, ptr %10, align 4, !tbaa !4
  store i32 %34, ptr %11, align 4, !tbaa !4
  br label %35

35:                                               ; preds = %66, %31
  %36 = load i32, ptr %11, align 4, !tbaa !4
  %37 = load ptr, ptr @the_repository, align 8, !tbaa !13
  %38 = getelementptr inbounds nuw %struct.repository, ptr %37, i32 0, i32 15
  %39 = load ptr, ptr %38, align 8, !tbaa !36
  %40 = getelementptr inbounds nuw %struct.index_state, ptr %39, i32 0, i32 2
  %41 = load i32, ptr %40, align 4, !tbaa !85
  %42 = icmp ult i32 %36, %41
  br i1 %42, label %43, label %69

43:                                               ; preds = %35
  call void @llvm.lifetime.start.p0(i64 8, ptr %13) #9
  %44 = load ptr, ptr @the_repository, align 8, !tbaa !13
  %45 = getelementptr inbounds nuw %struct.repository, ptr %44, i32 0, i32 15
  %46 = load ptr, ptr %45, align 8, !tbaa !36
  %47 = getelementptr inbounds nuw %struct.index_state, ptr %46, i32 0, i32 0
  %48 = load ptr, ptr %47, align 8, !tbaa !54
  %49 = load i32, ptr %11, align 4, !tbaa !4
  %50 = sext i32 %49 to i64
  %51 = getelementptr inbounds ptr, ptr %48, i64 %50
  %52 = load ptr, ptr %51, align 8, !tbaa !66
  %53 = getelementptr inbounds nuw %struct.cache_entry, ptr %52, i32 0, i32 8
  %54 = getelementptr inbounds [0 x i8], ptr %53, i64 0, i64 0
  store ptr %54, ptr %13, align 8, !tbaa !11
  %55 = load ptr, ptr %13, align 8, !tbaa !11
  %56 = load ptr, ptr %9, align 8, !tbaa !11
  %57 = load i32, ptr %12, align 4, !tbaa !4
  %58 = sext i32 %57 to i64
  %59 = call i32 @strncmp(ptr noundef %55, ptr noundef %56, i64 noundef %58) #11
  %60 = icmp ne i32 %59, 0
  br i1 %60, label %61, label %62

61:                                               ; preds = %43
  store i32 2, ptr %14, align 4
  br label %63

62:                                               ; preds = %43
  store i32 0, ptr %14, align 4
  br label %63

63:                                               ; preds = %62, %61
  call void @llvm.lifetime.end.p0(i64 8, ptr %13) #9
  %64 = load i32, ptr %14, align 4
  switch i32 %64, label %78 [
    i32 0, label %65
    i32 2, label %69
  ]

65:                                               ; preds = %63
  br label %66

66:                                               ; preds = %65
  %67 = load i32, ptr %11, align 4, !tbaa !4
  %68 = add nsw i32 %67, 1
  store i32 %68, ptr %11, align 4, !tbaa !4
  br label %35, !llvm.loop !90

69:                                               ; preds = %63, %35
  %70 = load ptr, ptr %9, align 8, !tbaa !11
  call void @free(ptr noundef %70) #9
  %71 = load i32, ptr %10, align 4, !tbaa !4
  %72 = load ptr, ptr %7, align 8, !tbaa !88
  store i32 %71, ptr %72, align 4, !tbaa !4
  %73 = load i32, ptr %11, align 4, !tbaa !4
  %74 = load ptr, ptr %8, align 8, !tbaa !88
  store i32 %73, ptr %74, align 4, !tbaa !4
  %75 = load i32, ptr %11, align 4, !tbaa !4
  %76 = load i32, ptr %10, align 4, !tbaa !4
  %77 = sub nsw i32 %75, %76
  store i32 1, ptr %14, align 4
  call void @llvm.lifetime.end.p0(i64 4, ptr %12) #9
  call void @llvm.lifetime.end.p0(i64 4, ptr %11) #9
  call void @llvm.lifetime.end.p0(i64 4, ptr %10) #9
  call void @llvm.lifetime.end.p0(i64 8, ptr %9) #9
  ret i32 %77

78:                                               ; preds = %63
  unreachable
}