; Function Attrs: nounwind uwtable
define internal fastcc range(i32 -2147483647, -2147483648) i32 @index_range_of_same_dir(ptr noundef %0, i32 noundef %1, ptr noundef nonnull writeonly captures(none) %2, ptr noundef nonnull writeonly captures(none) %3) unnamed_addr #0 {
  %5 = tail call i64 @strlen(ptr noundef nonnull dereferenceable(1) %0) #14
  %.not.i = icmp eq i64 %5, 0
  br i1 %.not.i, label %17, label %6

6:                                                ; preds = %4
  %7 = getelementptr i8, ptr %0, i64 %5
  %8 = getelementptr i8, ptr %7, i64 -1
  %9 = load i8, ptr %8, align 1, !tbaa !27
  %.not15.i = icmp eq i8 %9, 47
  br i1 %.not15.i, label %17, label %10

10:                                               ; preds = %6
  %11 = icmp ugt i64 %5, -3
  br i1 %11, label %12, label %st_add.exit.i

12:                                               ; preds = %10
  tail call void (ptr, ...) @die(ptr noundef nonnull @.str.31, i64 noundef range(i64 1, 0) %5, i64 noundef 2) #13
  unreachable

st_add.exit.i:                                    ; preds = %10
  %13 = add nuw i64 %5, 2
  %14 = tail call ptr @xmalloc(i64 noundef %13) #12
  tail call void @llvm.memcpy.p0.p0.i64(ptr align 1 %14, ptr nonnull align 1 %0, i64 %5, i1 false)
  %15 = getelementptr inbounds nuw i8, ptr %14, i64 %5
  store i8 47, ptr %15, align 1, !tbaa !27
  %16 = getelementptr i8, ptr %15, i64 1
  store i8 0, ptr %16, align 1, !tbaa !27
  br label %add_slash.exit

17:                                               ; preds = %6, %4
  %18 = tail call ptr @xstrdup(ptr noundef nonnull %0) #12
  br label %add_slash.exit

add_slash.exit:                                   ; preds = %st_add.exit.i, %17
  %.0.i = phi ptr [ %14, %st_add.exit.i ], [ %18, %17 ]
  %19 = add nsw i32 %1, 1
  %20 = load ptr, ptr @the_repository, align 8, !tbaa !21
  %21 = getelementptr inbounds nuw i8, ptr %20, i64 384
  %22 = load ptr, ptr %21, align 8, !tbaa !31
  %23 = tail call i32 @index_name_pos(ptr noundef %22, ptr noundef %.0.i, i32 noundef %19) #12
  %24 = icmp sgt i32 %23, -1
  br i1 %24, label %25, label %27

25:                                               ; preds = %add_slash.exit
  %26 = tail call fastcc ptr @_(ptr noundef nonnull @.str.35)
  tail call void (ptr, ...) @die(ptr noundef %26, i32 noundef %19, ptr noundef %.0.i) #13
  unreachable

27:                                               ; preds = %add_slash.exit
  %28 = xor i32 %23, -1
  %29 = load ptr, ptr @the_repository, align 8, !tbaa !21
  %30 = getelementptr inbounds nuw i8, ptr %29, i64 384
  %31 = load ptr, ptr %30, align 8, !tbaa !31
  %32 = getelementptr inbounds nuw i8, ptr %31, i64 12
  %33 = load i32, ptr %32, align 4, !tbaa !81
  %34 = icmp ugt i32 %33, %28
  br i1 %34, label %.lr.ph, label %._crit_edge

.lr.ph:                                           ; preds = %27
  %35 = load ptr, ptr %31, align 8, !tbaa !49
  %36 = sext i32 %19 to i64
  %37 = zext nneg i32 %28 to i64
  br label %38

38:                                               ; preds = %.lr.ph, %43
  %indvars.iv = phi i64 [ %37, %.lr.ph ], [ %indvars.iv.next, %43 ]
  %39 = getelementptr inbounds nuw ptr, ptr %35, i64 %indvars.iv
  %40 = load ptr, ptr %39, align 8, !tbaa !61
  %41 = getelementptr inbounds nuw i8, ptr %40, i64 108
  %42 = tail call i32 @strncmp(ptr noundef nonnull %41, ptr noundef %.0.i, i64 noundef %36) #14
  %.not = icmp eq i32 %42, 0
  br i1 %.not, label %43, label %._crit_edge.loopexit.split.loop.exit

43:                                               ; preds = %38
  %indvars.iv.next = add nuw nsw i64 %indvars.iv, 1
  %lftr.wideiv = trunc i64 %indvars.iv.next to i32
  %exitcond.not = icmp eq i32 %33, %lftr.wideiv
  br i1 %exitcond.not, label %._crit_edge, label %38, !llvm.loop !82

._crit_edge.loopexit.split.loop.exit:             ; preds = %38
  %44 = trunc nuw i64 %indvars.iv to i32
  br label %._crit_edge

._crit_edge:                                      ; preds = %43, %._crit_edge.loopexit.split.loop.exit, %27
  %.022.lcssa = phi i32 [ %28, %27 ], [ %44, %._crit_edge.loopexit.split.loop.exit ], [ %33, %43 ]
  tail call void @free(ptr noundef %.0.i) #12
  store i32 %28, ptr %2, align 4, !tbaa !4
  store i32 %.022.lcssa, ptr %3, align 4, !tbaa !4
  %45 = sub nsw i32 %.022.lcssa, %28
  ret i32 %45
}